target datalayout = "e-m:e-p270:32:32-p271:32:32-p272:64:64-i64:64-i128:128-f80:128-n8:16:32:64-S128"
target triple = "x86_64-pc-linux-gnu"

%"class.clang::TemplateArgument" = type { %union.anon.424 }
%union.anon.424 = type { %"struct.clang::TemplateArgument::DA" }
%"struct.clang::TemplateArgument::DA" = type { i32, ptr, ptr }
%"class.llvm::ArrayRef.418" = type { ptr, i64 }

; Function Attrs: mustprogress nounwind uwtable
define linkonce_odr hidden noundef ptr @_ZNK4llvm8ArrayRefIN5clang16TemplateArgumentEE3endEv(ptr noundef nonnull align 8 dereferenceable(16) %0) #0 comdat align 2 {
  %2 = alloca ptr, align 8
  store ptr %0, ptr %2, align 8
  %3 = load ptr, ptr %2, align 8
  %4 = getelementptr inbounds nuw %"class.llvm::ArrayRef.418", ptr %3, i32 0, i32 0
  %5 = load ptr, ptr %4, align 8
  %6 = getelementptr inbounds nuw %"class.llvm::ArrayRef.418", ptr %3, i32 0, i32 1
  %7 = load i64, ptr %6, align 8
  %8 = getelementptr inbounds %"class.clang::TemplateArgument", ptr %5, i64 %7
  ret ptr %8
}

; Function Attrs: mustprogress nounwind uwtable
define linkonce_odr hidden noundef ptr @_ZNK4llvm8ArrayRefIN5clang16TemplateArgumentEE5beginEv(ptr noundef nonnull align 8 dereferenceable(16) %0) #0 comdat align 2 {
  %2 = alloca ptr, align 8
  store ptr %0, ptr %2, align 8
  %3 = load ptr, ptr %2, align 8
  %4 = getelementptr inbounds nuw %"class.llvm::ArrayRef.418", ptr %3, i32 0, i32 0
  %5 = load ptr, ptr %4, align 8
  ret ptr %5
}

; Function Attrs: mustprogress nounwind uwtable
define linkonce_odr hidden void @_ZN4llvm16FoldingSetNodeID10AddIntegerEm(ptr noundef nonnull align 8 dereferenceable(144) %0, i64 noundef %1) #0 comdat align 2 {
  %3 = alloca ptr, align 8
  %4 = alloca i64, align 8
  store ptr %0, ptr %3, align 8
  store i64 %1, ptr %4, align 8
  %5 = load ptr, ptr %3, align 8
  %6 = load i64, ptr %4, align 8
  call void @_ZN4llvm16FoldingSetNodeID10AddIntegerEy(ptr noundef nonnull align 8 dereferenceable(144) %5, i64 noundef %6)
  ret void
}

; Function Attrs: mustprogress nounwind uwtable
define linkonce_odr hidden noundef i64 @_ZNK4llvm8ArrayRefIN5clang16TemplateArgumentEE4sizeEv(ptr noundef nonnull align 8 dereferenceable(16) %0) #0 comdat align 2 {
  %2 = alloca ptr, align 8
  store ptr %0, ptr %2, align 8
  %3 = load ptr, ptr %2, align 8
  %4 = getelementptr inbounds nuw %"class.llvm::ArrayRef.418", ptr %3, i32 0, i32 1
  %5 = load i64, ptr %4, align 8
  ret i64 %5
}

; Function Attrs: mustprogress nounwind uwtable
define dso_local void @_ZN5clang38ClassTemplatePartialSpecializationDecl7ProfileERN4llvm16FoldingSetNodeIDENS1_8ArrayRefINS_16TemplateArgumentEEEPNS_21TemplateParameterListERKNS_10ASTContextE(ptr noundef nonnull align 8 dereferenceable(144) %0, ptr %1, i64 %2, ptr noundef %3, ptr noundef nonnull align 8 dereferenceable(23096) %4) #0 align 2 {
  %6 = alloca %"class.llvm::ArrayRef.418", align 8
  %7 = alloca ptr, align 8
  %8 = alloca ptr, align 8
  %9 = alloca ptr, align 8
  %10 = alloca ptr, align 8
  %11 = alloca ptr, align 8
  %12 = alloca ptr, align 8
  %13 = alloca ptr, align 8
  %14 = getelementptr inbounds nuw { ptr, i64 }, ptr %6, i32 0, i32 0
  store ptr %1, ptr %14, align 8
  %15 = getelementptr inbounds nuw { ptr, i64 }, ptr %6, i32 0, i32 1
  store i64 %2, ptr %15, align 8
  store ptr %0, ptr %7, align 8
  store ptr %3, ptr %8, align 8
  store ptr %4, ptr %9, align 8
  %16 = load ptr, ptr %7, align 8
  %17 = call noundef i64 @_ZNK4llvm8ArrayRefIN5clang16TemplateArgumentEE4sizeEv(ptr noundef nonnull align 8 dereferenceable(16) %6)
  call void @_ZN4llvm16FoldingSetNodeID10AddIntegerEm(ptr noundef nonnull align 8 dereferenceable(144) %16, i64 noundef %17)
  store ptr %6, ptr %10, align 8
  %18 = load ptr, ptr %10, align 8
  %19 = call noundef ptr @_ZNK4llvm8ArrayRefIN5clang16TemplateArgumentEE5beginEv(ptr noundef nonnull align 8 dereferenceable(16) %18)
  store ptr %19, ptr %11, align 8
  %20 = load ptr, ptr %10, align 8
  %21 = call noundef ptr @_ZNK4llvm8ArrayRefIN5clang16TemplateArgumentEE3endEv(ptr noundef nonnull align 8 dereferenceable(16) %20)
  store ptr %21, ptr %12, align 8
  br label %22

22:                                               ; preds = %31, %5
  %23 = load ptr, ptr %11, align 8
  %24 = load ptr, ptr %12, align 8
  %25 = icmp ne ptr %23, %24
  br i1 %25, label %26, label %34

26:                                               ; preds = %22
  %27 = load ptr, ptr %11, align 8
  store ptr %27, ptr %13, align 8
  %28 = load ptr, ptr %13, align 8
  %29 = load ptr, ptr %7, align 8
  %30 = load ptr, ptr %9, align 8
  call void @_ZNK5clang16TemplateArgument7ProfileERN4llvm16FoldingSetNodeIDERKNS_10ASTContextE(ptr noundef nonnull align 8 dereferenceable(24) %28, ptr noundef nonnull align 8 dereferenceable(144) %29, ptr noundef nonnull align 8 dereferenceable(23096) %30)
  br label %31

31:                                               ; preds = %26
  %32 = load ptr, ptr %11, align 8
  %33 = getelementptr inbounds %"class.clang::TemplateArgument", ptr %32, i32 1
  store ptr %33, ptr %11, align 8
  br label %22

34:                                               ; preds = %22
  %35 = load ptr, ptr %8, align 8
  %36 = load ptr, ptr %7, align 8
  %37 = load ptr, ptr %9, align 8
  call void @_ZNK5clang21TemplateParameterList7ProfileERN4llvm16FoldingSetNodeIDERKNS_10ASTContextE(ptr noundef nonnull align 8 dereferenceable(16) %35, ptr noundef nonnull align 8 dereferenceable(144) %36, ptr noundef nonnull align 8 dereferenceable(23096) %37)
  ret void
}