; Function Attrs: mustprogress nounwind uwtable
define dso_local void @_ZN5clang38ClassTemplatePartialSpecializationDecl7ProfileERN4llvm16FoldingSetNodeIDENS1_8ArrayRefINS_16TemplateArgumentEEEPNS_21TemplateParameterListERKNS_10ASTContextE(ptr noundef nonnull align 8 dereferenceable(144) %0, ptr %1, i64 %2, ptr noundef %3, ptr noundef nonnull align 8 dereferenceable(23096) %4) local_unnamed_addr #0 align 2 {
  tail call void @_ZN4llvm16FoldingSetNodeID10AddIntegerEy(ptr noundef nonnull align 8 dereferenceable(144) %0, i64 noundef %2)
  %6 = getelementptr inbounds %"class.clang::TemplateArgument", ptr %1, i64 %2
  %.not15 = icmp eq i64 %2, 0
  br i1 %.not15, label %._crit_edge, label %.lr.ph

.lr.ph:                                           ; preds = %5, %.lr.ph
  %.016 = phi ptr [ %7, %.lr.ph ], [ %1, %5 ]
  tail call void @_ZNK5clang16TemplateArgument7ProfileERN4llvm16FoldingSetNodeIDERKNS_10ASTContextE(ptr noundef nonnull align 8 dereferenceable(24) %.016, ptr noundef nonnull align 8 dereferenceable(144) %0, ptr noundef nonnull align 8 dereferenceable(23096) %4) #21
  %7 = getelementptr inbounds nuw i8, ptr %.016, i64 24
  %.not = icmp eq ptr %7, %6
  br i1 %.not, label %._crit_edge, label %.lr.ph

._crit_edge:                                      ; preds = %.lr.ph, %5
  tail call void @_ZNK5clang21TemplateParameterList7ProfileERN4llvm16FoldingSetNodeIDERKNS_10ASTContextE(ptr noundef nonnull align 8 dereferenceable(16) %3, ptr noundef nonnull align 8 dereferenceable(144) %0, ptr noundef nonnull align 8 dereferenceable(23096) %4)
  ret void
}